; ModuleID = '39/394.c'
source_filename = "39/394.c"
target datalayout = "e-m:e-p270:32:32-p271:32:32-p272:64:64-i64:64-f80:128-n8:16:32:64-S128"
target triple = "x86_64-pc-linux-gnu"

%struct.stu = type { [24 x i8], i32, i32, i8, i8, i32, i32 }

@.str = private unnamed_addr constant [3 x i8] c"%d\00", align 1
@.str.1 = private unnamed_addr constant [18 x i8] c"%s %d %d %c %c %d\00", align 1
@.str.2 = private unnamed_addr constant [9 x i8] c"%s\0A%d\0A%d\00", align 1

; Function Attrs: noinline nounwind uwtable
define dso_local i32 @f(%struct.stu* %0) #0 {
  %2 = alloca %struct.stu*, align 8
  %3 = alloca i32, align 4
  store %struct.stu* %0, %struct.stu** %2, align 8
  store i32 0, i32* %3, align 4
  %4 = load %struct.stu*, %struct.stu** %2, align 8
  %5 = getelementptr inbounds %struct.stu, %struct.stu* %4, i32 0, i32 1
  %6 = load i32, i32* %5, align 4
  %7 = icmp sgt i32 %6, 80
  br i1 %7, label %8, label %16

8:                                                ; preds = %1
  %9 = load %struct.stu*, %struct.stu** %2, align 8
  %10 = getelementptr inbounds %struct.stu, %struct.stu* %9, i32 0, i32 5
  %11 = load i32, i32* %10, align 4
  %12 = icmp sgt i32 %11, 0
  br i1 %12, label %13, label %16

13:                                               ; preds = %8
  %14 = load i32, i32* %3, align 4
  %15 = add nsw i32 %14, 8000
  store i32 %15, i32* %3, align 4
  br label %16

16:                                               ; preds = %13, %8, %1
  %17 = load %struct.stu*, %struct.stu** %2, align 8
  %18 = getelementptr inbounds %struct.stu, %struct.stu* %17, i32 0, i32 1
  %19 = load i32, i32* %18, align 4
  %20 = icmp sgt i32 %19, 85
  br i1 %20, label %21, label %29

21:                                               ; preds = %16
  %22 = load %struct.stu*, %struct.stu** %2, align 8
  %23 = getelementptr inbounds %struct.stu, %struct.stu* %22, i32 0, i32 2
  %24 = load i32, i32* %23, align 4
  %25 = icmp sgt i32 %24, 80
  br i1 %25, label %26, label %29

26:                                               ; preds = %21
  %27 = load i32, i32* %3, align 4
  %28 = add nsw i32 %27, 4000
  store i32 %28, i32* %3, align 4
  br label %29

29:                                               ; preds = %26, %21, %16
  %30 = load %struct.stu*, %struct.stu** %2, align 8
  %31 = getelementptr inbounds %struct.stu, %struct.stu* %30, i32 0, i32 1
  %32 = load i32, i32* %31, align 4
  %33 = icmp sgt i32 %32, 90
  br i1 %33, label %34, label %37

34:                                               ; preds = %29
  %35 = load i32, i32* %3, align 4
  %36 = add nsw i32 %35, 2000
  store i32 %36, i32* %3, align 4
  br label %37

37:                                               ; preds = %34, %29
  %38 = load %struct.stu*, %struct.stu** %2, align 8
  %39 = getelementptr inbounds %struct.stu, %struct.stu* %38, i32 0, i32 1
  %40 = load i32, i32* %39, align 4
  %41 = icmp sgt i32 %40, 85
  br i1 %41, label %42, label %51

42:                                               ; preds = %37
  %43 = load %struct.stu*, %struct.stu** %2, align 8
  %44 = getelementptr inbounds %struct.stu, %struct.stu* %43, i32 0, i32 4
  %45 = load i8, i8* %44, align 1
  %46 = sext i8 %45 to i32
  %47 = icmp eq i32 %46, 89
  br i1 %47, label %48, label %51

48:                                               ; preds = %42
  %49 = load i32, i32* %3, align 4
  %50 = add nsw i32 %49, 1000
  store i32 %50, i32* %3, align 4
  br label %51

51:                                               ; preds = %48, %42, %37
  %52 = load %struct.stu*, %struct.stu** %2, align 8
  %53 = getelementptr inbounds %struct.stu, %struct.stu* %52, i32 0, i32 2
  %54 = load i32, i32* %53, align 4
  %55 = icmp sgt i32 %54, 80
  br i1 %55, label %56, label %65

56:                                               ; preds = %51
  %57 = load %struct.stu*, %struct.stu** %2, align 8
  %58 = getelementptr inbounds %struct.stu, %struct.stu* %57, i32 0, i32 3
  %59 = load i8, i8* %58, align 4
  %60 = sext i8 %59 to i32
  %61 = icmp eq i32 %60, 89
  br i1 %61, label %62, label %65

62:                                               ; preds = %56
  %63 = load i32, i32* %3, align 4
  %64 = add nsw i32 %63, 850
  store i32 %64, i32* %3, align 4
  br label %65

65:                                               ; preds = %62, %56, %51
  %66 = load i32, i32* %3, align 4
  ret i32 %66
}

; Function Attrs: noinline nounwind uwtable
define dso_local void @main() #0 {
  %1 = alloca %struct.stu*, align 8
  %2 = alloca i32, align 4
  %3 = alloca i32, align 4
  %4 = alloca i32, align 4
  %5 = alloca i32, align 4
  store i32 0, i32* %4, align 4
  store i32 0, i32* %5, align 4
  %6 = call i32 (i8*, ...) @__isoc99_scanf(i8* getelementptr inbounds ([3 x i8], [3 x i8]* @.str, i64 0, i64 0), i32* %2)
  %7 = load i32, i32* %2, align 4
  %8 = sext i32 %7 to i64
  %9 = mul i64 %8, 44
  %10 = call noalias i8* @malloc(i64 %9) #3
  %11 = bitcast i8* %10 to %struct.stu*
  store %struct.stu* %11, %struct.stu** %1, align 8
  store i32 0, i32* %3, align 4
  br label %12

12:                                               ; preds = %67, %0
  %13 = load i32, i32* %3, align 4
  %14 = load i32, i32* %2, align 4
  %15 = icmp slt i32 %13, %14
  br i1 %15, label %16, label %70

16:                                               ; preds = %12
  %17 = load %struct.stu*, %struct.stu** %1, align 8
  %18 = load i32, i32* %3, align 4
  %19 = sext i32 %18 to i64
  %20 = getelementptr inbounds %struct.stu, %struct.stu* %17, i64 %19
  %21 = getelementptr inbounds %struct.stu, %struct.stu* %20, i32 0, i32 0
  %22 = getelementptr inbounds [24 x i8], [24 x i8]* %21, i64 0, i64 0
  %23 = load %struct.stu*, %struct.stu** %1, align 8
  %24 = load i32, i32* %3, align 4
  %25 = sext i32 %24 to i64
  %26 = getelementptr inbounds %struct.stu, %struct.stu* %23, i64 %25
  %27 = getelementptr inbounds %struct.stu, %struct.stu* %26, i32 0, i32 1
  %28 = load %struct.stu*, %struct.stu** %1, align 8
  %29 = load i32, i32* %3, align 4
  %30 = sext i32 %29 to i64
  %31 = getelementptr inbounds %struct.stu, %struct.stu* %28, i64 %30
  %32 = getelementptr inbounds %struct.stu, %struct.stu* %31, i32 0, i32 2
  %33 = load %struct.stu*, %struct.stu** %1, align 8
  %34 = load i32, i32* %3, align 4
  %35 = sext i32 %34 to i64
  %36 = getelementptr inbounds %struct.stu, %struct.stu* %33, i64 %35
  %37 = getelementptr inbounds %struct.stu, %struct.stu* %36, i32 0, i32 3
  %38 = load %struct.stu*, %struct.stu** %1, align 8
  %39 = load i32, i32* %3, align 4
  %40 = sext i32 %39 to i64
  %41 = getelementptr inbounds %struct.stu, %struct.stu* %38, i64 %40
  %42 = getelementptr inbounds %struct.stu, %struct.stu* %41, i32 0, i32 4
  %43 = load %struct.stu*, %struct.stu** %1, align 8
  %44 = load i32, i32* %3, align 4
  %45 = sext i32 %44 to i64
  %46 = getelementptr inbounds %struct.stu, %struct.stu* %43, i64 %45
  %47 = getelementptr inbounds %struct.stu, %struct.stu* %46, i32 0, i32 5
  %48 = call i32 (i8*, ...) @__isoc99_scanf(i8* getelementptr inbounds ([18 x i8], [18 x i8]* @.str.1, i64 0, i64 0), i8* %22, i32* %27, i32* %32, i8* %37, i8* %42, i32* %47)
  %49 = load %struct.stu*, %struct.stu** %1, align 8
  %50 = load i32, i32* %3, align 4
  %51 = sext i32 %50 to i64
  %52 = getelementptr inbounds %struct.stu, %struct.stu* %49, i64 %51
  %53 = call i32 @f(%struct.stu* %52)
  %54 = load %struct.stu*, %struct.stu** %1, align 8
  %55 = load i32, i32* %3, align 4
  %56 = sext i32 %55 to i64
  %57 = getelementptr inbounds %struct.stu, %struct.stu* %54, i64 %56
  %58 = getelementptr inbounds %struct.stu, %struct.stu* %57, i32 0, i32 6
  store i32 %53, i32* %58, align 4
  %59 = load i32, i32* %5, align 4
  %60 = load %struct.stu*, %struct.stu** %1, align 8
  %61 = load i32, i32* %3, align 4
  %62 = sext i32 %61 to i64
  %63 = getelementptr inbounds %struct.stu, %struct.stu* %60, i64 %62
  %64 = getelementptr inbounds %struct.stu, %struct.stu* %63, i32 0, i32 6
  %65 = load i32, i32* %64, align 4
  %66 = add nsw i32 %59, %65
  store i32 %66, i32* %5, align 4
  br label %67

67:                                               ; preds = %16
  %68 = load i32, i32* %3, align 4
  %69 = add nsw i32 %68, 1
  store i32 %69, i32* %3, align 4
  br label %12

70:                                               ; preds = %12
  store i32 1, i32* %3, align 4
  br label %71

71:                                               ; preds = %92, %70
  %72 = load i32, i32* %3, align 4
  %73 = load i32, i32* %2, align 4
  %74 = icmp slt i32 %72, %73
  br i1 %74, label %75, label %95

75:                                               ; preds = %71
  %76 = load %struct.stu*, %struct.stu** %1, align 8
  %77 = load i32, i32* %3, align 4
  %78 = sext i32 %77 to i64
  %79 = getelementptr inbounds %struct.stu, %struct.stu* %76, i64 %78
  %80 = getelementptr inbounds %struct.stu, %struct.stu* %79, i32 0, i32 6
  %81 = load i32, i32* %80, align 4
  %82 = load %struct.stu*, %struct.stu** %1, align 8
  %83 = load i32, i32* %4, align 4
  %84 = sext i32 %83 to i64
  %85 = getelementptr inbounds %struct.stu, %struct.stu* %82, i64 %84
  %86 = getelementptr inbounds %struct.stu, %struct.stu* %85, i32 0, i32 6
  %87 = load i32, i32* %86, align 4
  %88 = icmp sgt i32 %81, %87
  br i1 %88, label %89, label %91

89:                                               ; preds = %75
  %90 = load i32, i32* %3, align 4
  store i32 %90, i32* %4, align 4
  br label %91

91:                                               ; preds = %89, %75
  br label %92

92:                                               ; preds = %91
  %93 = load i32, i32* %3, align 4
  %94 = add nsw i32 %93, 1
  store i32 %94, i32* %3, align 4
  br label %71

95:                                               ; preds = %71
  %96 = load %struct.stu*, %struct.stu** %1, align 8
  %97 = load i32, i32* %4, align 4
  %98 = sext i32 %97 to i64
  %99 = getelementptr inbounds %struct.stu, %struct.stu* %96, i64 %98
  %100 = getelementptr inbounds %struct.stu, %struct.stu* %99, i32 0, i32 0
  %101 = getelementptr inbounds [24 x i8], [24 x i8]* %100, i64 0, i64 0
  %102 = load %struct.stu*, %struct.stu** %1, align 8
  %103 = load i32, i32* %4, align 4
  %104 = sext i32 %103 to i64
  %105 = getelementptr inbounds %struct.stu, %struct.stu* %102, i64 %104
  %106 = getelementptr inbounds %struct.stu, %struct.stu* %105, i32 0, i32 6
  %107 = load i32, i32* %106, align 4
  %108 = load i32, i32* %5, align 4
  %109 = call i32 (i8*, ...) @printf(i8* getelementptr inbounds ([9 x i8], [9 x i8]* @.str.2, i64 0, i64 0), i8* %101, i32 %107, i32 %108)
  ret void
}

declare dso_local i32 @__isoc99_scanf(i8*, ...) #1

; Function Attrs: nounwind
declare dso_local noalias i8* @malloc(i64) #2

declare dso_local i32 @printf(i8*, ...) #1


!llvm.module.flags = !{!0}
!llvm.ident = !{!1}

!0 = !{i32 1, !"wchar_size", i32 4}
!1 = !{!"clang version 10.0.0-4ubuntu1 "}
